target datalayout = "e-m:e-p270:32:32-p271:32:32-p272:64:64-i64:64-i128:128-f80:128-n8:16:32:64-S128"
target triple = "x86_64-pc-linux-gnu"

%struct.CMS_EncryptedContentInfo_st = type { ptr, ptr, ptr, ptr, ptr, i64, ptr, i64, i32, i32 }

@.str = private unnamed_addr constant [34 x i8] c"../openssl/crypto/cms/cms_smime.c\00", align 1
@__func__.CMS_decrypt_set1_pkey_and_peer = private unnamed_addr constant [31 x i8] c"CMS_decrypt_set1_pkey_and_peer\00", align 1

; Function Attrs: inlinehint nounwind uwtable
define internal ptr @ossl_check_const_CMS_RecipientEncryptedKey_sk_type(ptr noundef %0) #3 {
  %2 = alloca ptr, align 8
  store ptr %0, ptr %2, align 8, !tbaa !79
  %3 = load ptr, ptr %2, align 8, !tbaa !79
  ret ptr %3
}

; Function Attrs: nounwind uwtable
define internal i32 @cms_kari_set1_pkey_and_peer(ptr noundef %0, ptr noundef %1, ptr noundef %2, ptr noundef %3, ptr noundef %4) #0 {
  %6 = alloca i32, align 4
  %7 = alloca ptr, align 8
  %8 = alloca ptr, align 8
  %9 = alloca ptr, align 8
  %10 = alloca ptr, align 8
  %11 = alloca ptr, align 8
  %12 = alloca i32, align 4
  %13 = alloca ptr, align 8
  %14 = alloca ptr, align 8
  %15 = alloca i32, align 4
  %16 = alloca i32, align 4
  store ptr %0, ptr %7, align 8, !tbaa !3
  store ptr %1, ptr %8, align 8, !tbaa !76
  store ptr %2, ptr %9, align 8, !tbaa !54
  store ptr %3, ptr %10, align 8, !tbaa !44
  store ptr %4, ptr %11, align 8, !tbaa !44
  call void @llvm.lifetime.start.p0(i64 4, ptr %12) #4
  call void @llvm.lifetime.start.p0(i64 8, ptr %13) #4
  call void @llvm.lifetime.start.p0(i64 8, ptr %14) #4
  %17 = load ptr, ptr %8, align 8, !tbaa !76
  %18 = call ptr @CMS_RecipientInfo_kari_get0_reks(ptr noundef %17)
  store ptr %18, ptr %13, align 8, !tbaa !79
  store i32 0, ptr %12, align 4, !tbaa !10
  br label %19

19:                                               ; preds = %58, %5
  %20 = load i32, ptr %12, align 4, !tbaa !10
  %21 = load ptr, ptr %13, align 8, !tbaa !79
  %22 = call ptr @ossl_check_const_CMS_RecipientEncryptedKey_sk_type(ptr noundef %21)
  %23 = call i32 @OPENSSL_sk_num(ptr noundef %22)
  %24 = icmp slt i32 %20, %23
  br i1 %24, label %25, label %61

25:                                               ; preds = %19
  call void @llvm.lifetime.start.p0(i64 4, ptr %15) #4
  %26 = load ptr, ptr %13, align 8, !tbaa !79
  %27 = call ptr @ossl_check_const_CMS_RecipientEncryptedKey_sk_type(ptr noundef %26)
  %28 = load i32, ptr %12, align 4, !tbaa !10
  %29 = call ptr @OPENSSL_sk_value(ptr noundef %27, i32 noundef %28)
  store ptr %29, ptr %14, align 8, !tbaa !81
  %30 = load ptr, ptr %10, align 8, !tbaa !44
  %31 = icmp ne ptr %30, null
  br i1 %31, label %32, label %38

32:                                               ; preds = %25
  %33 = load ptr, ptr %14, align 8, !tbaa !81
  %34 = load ptr, ptr %10, align 8, !tbaa !44
  %35 = call i32 @CMS_RecipientEncryptedKey_cert_cmp(ptr noundef %33, ptr noundef %34)
  %36 = icmp ne i32 %35, 0
  br i1 %36, label %37, label %38

37:                                               ; preds = %32
  store i32 4, ptr %16, align 4
  br label %56

38:                                               ; preds = %32, %25
  %39 = load ptr, ptr %8, align 8, !tbaa !76
  %40 = load ptr, ptr %9, align 8, !tbaa !54
  %41 = load ptr, ptr %11, align 8, !tbaa !44
  %42 = call i32 @CMS_RecipientInfo_kari_set0_pkey_and_peer(ptr noundef %39, ptr noundef %40, ptr noundef %41)
  %43 = load ptr, ptr %7, align 8, !tbaa !3
  %44 = load ptr, ptr %8, align 8, !tbaa !76
  %45 = load ptr, ptr %14, align 8, !tbaa !81
  %46 = call i32 @CMS_RecipientInfo_kari_decrypt(ptr noundef %43, ptr noundef %44, ptr noundef %45)
  store i32 %46, ptr %15, align 4, !tbaa !10
  %47 = load ptr, ptr %8, align 8, !tbaa !76
  %48 = call i32 @CMS_RecipientInfo_kari_set0_pkey(ptr noundef %47, ptr noundef null)
  %49 = load i32, ptr %15, align 4, !tbaa !10
  %50 = icmp sgt i32 %49, 0
  br i1 %50, label %51, label %52

51:                                               ; preds = %38
  store i32 1, ptr %6, align 4
  store i32 1, ptr %16, align 4
  br label %56

52:                                               ; preds = %38
  %53 = load ptr, ptr %10, align 8, !tbaa !44
  %54 = icmp eq ptr %53, null
  %55 = select i1 %54, i32 0, i32 -1
  store i32 %55, ptr %6, align 4
  store i32 1, ptr %16, align 4
  br label %56

56:                                               ; preds = %52, %51, %37
  call void @llvm.lifetime.end.p0(i64 4, ptr %15) #4
  %57 = load i32, ptr %16, align 4
  switch i32 %57, label %62 [
    i32 4, label %58
  ]

58:                                               ; preds = %56
  %59 = load i32, ptr %12, align 4, !tbaa !10
  %60 = add nsw i32 %59, 1
  store i32 %60, ptr %12, align 4, !tbaa !10
  br label %19, !llvm.loop !83

61:                                               ; preds = %19
  store i32 0, ptr %6, align 4
  store i32 1, ptr %16, align 4
  br label %62

62:                                               ; preds = %61, %56
  call void @llvm.lifetime.end.p0(i64 8, ptr %14) #4
  call void @llvm.lifetime.end.p0(i64 8, ptr %13) #4
  call void @llvm.lifetime.end.p0(i64 4, ptr %12) #4
  %63 = load i32, ptr %6, align 4
  ret i32 %63
}

; Function Attrs: inlinehint nounwind uwtable
define internal ptr @ossl_check_const_CMS_RecipientInfo_sk_type(ptr noundef %0) #3 {
  %2 = alloca ptr, align 8
  store ptr %0, ptr %2, align 8, !tbaa !68
  %3 = load ptr, ptr %2, align 8, !tbaa !68
  ret ptr %3
}

; Function Attrs: nounwind uwtable
define i32 @CMS_decrypt_set1_pkey_and_peer(ptr noundef %0, ptr noundef %1, ptr noundef %2, ptr noundef %3) #0 {
  %5 = alloca i32, align 4
  %6 = alloca ptr, align 8
  %7 = alloca ptr, align 8
  %8 = alloca ptr, align 8
  %9 = alloca ptr, align 8
  %10 = alloca ptr, align 8
  %11 = alloca ptr, align 8
  %12 = alloca i32, align 4
  %13 = alloca i32, align 4
  %14 = alloca i32, align 4
  %15 = alloca i32, align 4
  %16 = alloca i32, align 4
  %17 = alloca ptr, align 8
  %18 = alloca i32, align 4
  %19 = alloca i32, align 4
  store ptr %0, ptr %6, align 8, !tbaa !3
  store ptr %1, ptr %7, align 8, !tbaa !54
  store ptr %2, ptr %8, align 8, !tbaa !44
  store ptr %3, ptr %9, align 8, !tbaa !44
  call void @llvm.lifetime.start.p0(i64 8, ptr %10) #4
  %20 = load ptr, ptr %6, align 8, !tbaa !3
  %21 = call ptr @CMS_get0_RecipientInfos(ptr noundef %20)
  store ptr %21, ptr %10, align 8, !tbaa !68
  call void @llvm.lifetime.start.p0(i64 8, ptr %11) #4
  call void @llvm.lifetime.start.p0(i64 4, ptr %12) #4
  call void @llvm.lifetime.start.p0(i64 4, ptr %13) #4
  call void @llvm.lifetime.start.p0(i64 4, ptr %14) #4
  call void @llvm.lifetime.start.p0(i64 4, ptr %15) #4
  store i32 0, ptr %15, align 4, !tbaa !10
  call void @llvm.lifetime.start.p0(i64 4, ptr %16) #4
  store i32 0, ptr %16, align 4, !tbaa !10
  call void @llvm.lifetime.start.p0(i64 8, ptr %17) #4
  %22 = load ptr, ptr %6, align 8, !tbaa !3
  %23 = call ptr @ossl_cms_get0_env_enc_content(ptr noundef %22)
  store ptr %23, ptr %17, align 8, !tbaa !70
  %24 = load ptr, ptr %17, align 8, !tbaa !70
  %25 = icmp ne ptr %24, null
  br i1 %25, label %26, label %37

26:                                               ; preds = %4
  %27 = load ptr, ptr %17, align 8, !tbaa !70
  %28 = getelementptr inbounds nuw %struct.CMS_EncryptedContentInfo_st, ptr %27, i32 0, i32 4
  %29 = load ptr, ptr %28, align 8, !tbaa !72
  %30 = load ptr, ptr %17, align 8, !tbaa !70
  %31 = getelementptr inbounds nuw %struct.CMS_EncryptedContentInfo_st, ptr %30, i32 0, i32 5
  %32 = load i64, ptr %31, align 8, !tbaa !74
  call void @CRYPTO_clear_free(ptr noundef %29, i64 noundef %32, ptr noundef @.str, i32 noundef 725)
  %33 = load ptr, ptr %17, align 8, !tbaa !70
  %34 = getelementptr inbounds nuw %struct.CMS_EncryptedContentInfo_st, ptr %33, i32 0, i32 4
  store ptr null, ptr %34, align 8, !tbaa !72
  %35 = load ptr, ptr %17, align 8, !tbaa !70
  %36 = getelementptr inbounds nuw %struct.CMS_EncryptedContentInfo_st, ptr %35, i32 0, i32 5
  store i64 0, ptr %36, align 8, !tbaa !74
  br label %37

37:                                               ; preds = %26, %4
  %38 = load ptr, ptr %10, align 8, !tbaa !68
  %39 = icmp ne ptr %38, null
  br i1 %39, label %40, label %47

40:                                               ; preds = %37
  %41 = load ptr, ptr %17, align 8, !tbaa !70
  %42 = icmp ne ptr %41, null
  br i1 %42, label %43, label %47

43:                                               ; preds = %40
  %44 = load ptr, ptr %17, align 8, !tbaa !70
  %45 = getelementptr inbounds nuw %struct.CMS_EncryptedContentInfo_st, ptr %44, i32 0, i32 8
  %46 = load i32, ptr %45, align 8, !tbaa !75
  store i32 %46, ptr %15, align 4, !tbaa !10
  br label %47

47:                                               ; preds = %43, %40, %37
  %48 = load ptr, ptr %7, align 8, !tbaa !54
  %49 = call i32 @ossl_cms_pkey_get_ri_type(ptr noundef %48)
  store i32 %49, ptr %14, align 4, !tbaa !10
  %50 = load i32, ptr %14, align 4, !tbaa !10
  %51 = icmp eq i32 %50, -1
  br i1 %51, label %52, label %53

52:                                               ; preds = %47
  call void @ERR_new()
  call void @ERR_set_debug(ptr noundef @.str, i32 noundef 735, ptr noundef @__func__.CMS_decrypt_set1_pkey_and_peer)
  call void (i32, i32, ptr, ...) @ERR_set_error(i32 noundef 46, i32 noundef 125, ptr noundef null)
  store i32 0, ptr %5, align 4
  store i32 1, ptr %18, align 4
  br label %158

53:                                               ; preds = %47
  store i32 0, ptr %12, align 4, !tbaa !10
  br label %54

54:                                               ; preds = %137, %53
  %55 = load i32, ptr %12, align 4, !tbaa !10
  %56 = load ptr, ptr %10, align 8, !tbaa !68
  %57 = call ptr @ossl_check_const_CMS_RecipientInfo_sk_type(ptr noundef %56)
  %58 = call i32 @OPENSSL_sk_num(ptr noundef %57)
  %59 = icmp slt i32 %55, %58
  br i1 %59, label %60, label %140

60:                                               ; preds = %54
  call void @llvm.lifetime.start.p0(i64 4, ptr %19) #4
  %61 = load ptr, ptr %10, align 8, !tbaa !68
  %62 = call ptr @ossl_check_const_CMS_RecipientInfo_sk_type(ptr noundef %61)
  %63 = load i32, ptr %12, align 4, !tbaa !10
  %64 = call ptr @OPENSSL_sk_value(ptr noundef %62, i32 noundef %63)
  store ptr %64, ptr %11, align 8, !tbaa !76
  %65 = load ptr, ptr %11, align 8, !tbaa !76
  %66 = call i32 @CMS_RecipientInfo_type(ptr noundef %65)
  store i32 %66, ptr %19, align 4, !tbaa !10
  %67 = load ptr, ptr %7, align 8, !tbaa !54
  %68 = load i32, ptr %19, align 4, !tbaa !10
  %69 = call i32 @ossl_cms_pkey_is_ri_type_supported(ptr noundef %67, i32 noundef %68)
  %70 = icmp ne i32 %69, 0
  br i1 %70, label %72, label %71

71:                                               ; preds = %60
  store i32 4, ptr %18, align 4
  br label %134

72:                                               ; preds = %60
  store i32 1, ptr %16, align 4, !tbaa !10
  %73 = load i32, ptr %19, align 4, !tbaa !10
  %74 = icmp eq i32 %73, 1
  br i1 %74, label %75, label %90

75:                                               ; preds = %72
  %76 = load ptr, ptr %6, align 8, !tbaa !3
  %77 = load ptr, ptr %11, align 8, !tbaa !76
  %78 = load ptr, ptr %7, align 8, !tbaa !54
  %79 = load ptr, ptr %8, align 8, !tbaa !44
  %80 = load ptr, ptr %9, align 8, !tbaa !44
  %81 = call i32 @cms_kari_set1_pkey_and_peer(ptr noundef %76, ptr noundef %77, ptr noundef %78, ptr noundef %79, ptr noundef %80)
  store i32 %81, ptr %13, align 4, !tbaa !10
  %82 = load i32, ptr %13, align 4, !tbaa !10
  %83 = icmp sgt i32 %82, 0
  br i1 %83, label %84, label %85

84:                                               ; preds = %75
  store i32 1, ptr %5, align 4
  store i32 1, ptr %18, align 4
  br label %134

85:                                               ; preds = %75
  %86 = load i32, ptr %13, align 4, !tbaa !10
  %87 = icmp slt i32 %86, 0
  br i1 %87, label %88, label %89

88:                                               ; preds = %85
  store i32 0, ptr %5, align 4
  store i32 1, ptr %18, align 4
  br label %134

89:                                               ; preds = %85
  br label %133

90:                                               ; preds = %72
  %91 = load ptr, ptr %8, align 8, !tbaa !44
  %92 = icmp eq ptr %91, null
  br i1 %92, label %98, label %93

93:                                               ; preds = %90
  %94 = load ptr, ptr %11, align 8, !tbaa !76
  %95 = load ptr, ptr %8, align 8, !tbaa !44
  %96 = call i32 @CMS_RecipientInfo_ktri_cert_cmp(ptr noundef %94, ptr noundef %95)
  %97 = icmp ne i32 %96, 0
  br i1 %97, label %132, label %98

98:                                               ; preds = %93, %90
  %99 = load ptr, ptr %7, align 8, !tbaa !54
  %100 = call i32 @EVP_PKEY_up_ref(ptr noundef %99)
  %101 = load ptr, ptr %11, align 8, !tbaa !76
  %102 = load ptr, ptr %7, align 8, !tbaa !54
  %103 = call i32 @CMS_RecipientInfo_set0_pkey(ptr noundef %101, ptr noundef %102)
  %104 = load ptr, ptr %6, align 8, !tbaa !3
  %105 = load ptr, ptr %11, align 8, !tbaa !76
  %106 = call i32 @CMS_RecipientInfo_decrypt(ptr noundef %104, ptr noundef %105)
  store i32 %106, ptr %13, align 4, !tbaa !10
  %107 = load ptr, ptr %11, align 8, !tbaa !76
  %108 = call i32 @CMS_RecipientInfo_set0_pkey(ptr noundef %107, ptr noundef null)
  %109 = load ptr, ptr %8, align 8, !tbaa !44
  %110 = icmp ne ptr %109, null
  br i1 %110, label %111, label %120

111:                                              ; preds = %98
  %112 = load i32, ptr %15, align 4, !tbaa !10
  %113 = icmp ne i32 %112, 0
  br i1 %113, label %115, label %114

114:                                              ; preds = %111
  call void @ERR_clear_error()
  store i32 1, ptr %5, align 4
  store i32 1, ptr %18, align 4
  br label %134

115:                                              ; preds = %111
  %116 = load i32, ptr %13, align 4, !tbaa !10
  %117 = icmp sgt i32 %116, 0
  br i1 %117, label %118, label %119

118:                                              ; preds = %115
  store i32 1, ptr %5, align 4
  store i32 1, ptr %18, align 4
  br label %134

119:                                              ; preds = %115
  call void @ERR_new()
  call void @ERR_set_debug(ptr noundef @.str, i32 noundef 771, ptr noundef @__func__.CMS_decrypt_set1_pkey_and_peer)
  call void (i32, i32, ptr, ...) @ERR_set_error(i32 noundef 46, i32 noundef 112, ptr noundef null)
  store i32 0, ptr %5, align 4
  store i32 1, ptr %18, align 4
  br label %134

120:                                              ; preds = %98
  %121 = load i32, ptr %13, align 4, !tbaa !10
  %122 = icmp sgt i32 %121, 0
  br i1 %122, label %123, label %130

123:                                              ; preds = %120
  %124 = load i32, ptr %15, align 4, !tbaa !10
  %125 = icmp ne i32 %124, 0
  br i1 %125, label %129, label %126

126:                                              ; preds = %123
  %127 = load i32, ptr %14, align 4, !tbaa !10
  %128 = icmp ne i32 %127, 0
  br i1 %128, label %129, label %130

129:                                              ; preds = %126, %123
  store i32 1, ptr %5, align 4
  store i32 1, ptr %18, align 4
  br label %134

130:                                              ; preds = %126, %120
  br label %131

131:                                              ; preds = %130
  br label %132

132:                                              ; preds = %131, %93
  br label %133

133:                                              ; preds = %132, %89
  store i32 0, ptr %18, align 4
  br label %134

134:                                              ; preds = %133, %129, %119, %118, %114, %88, %84, %71
  call void @llvm.lifetime.end.p0(i64 4, ptr %19) #4
  %135 = load i32, ptr %18, align 4
  switch i32 %135, label %158 [
    i32 0, label %136
    i32 4, label %137
  ]

136:                                              ; preds = %134
  br label %137

137:                                              ; preds = %136, %134
  %138 = load i32, ptr %12, align 4, !tbaa !10
  %139 = add nsw i32 %138, 1
  store i32 %139, ptr %12, align 4, !tbaa !10
  br label %54, !llvm.loop !78

140:                                              ; preds = %54
  %141 = load ptr, ptr %8, align 8, !tbaa !44
  %142 = icmp eq ptr %141, null
  br i1 %142, label %143, label %153

143:                                              ; preds = %140
  %144 = load i32, ptr %14, align 4, !tbaa !10
  %145 = icmp eq i32 %144, 0
  br i1 %145, label %146, label %153

146:                                              ; preds = %143
  %147 = load i32, ptr %16, align 4, !tbaa !10
  %148 = icmp ne i32 %147, 0
  br i1 %148, label %149, label %153

149:                                              ; preds = %146
  %150 = load i32, ptr %15, align 4, !tbaa !10
  %151 = icmp ne i32 %150, 0
  br i1 %151, label %153, label %152

152:                                              ; preds = %149
  call void @ERR_clear_error()
  store i32 1, ptr %5, align 4
  store i32 1, ptr %18, align 4
  br label %158

153:                                              ; preds = %149, %146, %143, %140
  %154 = load i32, ptr %16, align 4, !tbaa !10
  %155 = icmp ne i32 %154, 0
  br i1 %155, label %157, label %156

156:                                              ; preds = %153
  call void @ERR_new()
  call void @ERR_set_debug(ptr noundef @.str, i32 noundef 793, ptr noundef @__func__.CMS_decrypt_set1_pkey_and_peer)
  call void (i32, i32, ptr, ...) @ERR_set_error(i32 noundef 46, i32 noundef 132, ptr noundef null)
  br label %157

157:                                              ; preds = %156, %153
  store i32 0, ptr %5, align 4
  store i32 1, ptr %18, align 4
  br label %158

158:                                              ; preds = %157, %152, %134, %52
  call void @llvm.lifetime.end.p0(i64 8, ptr %17) #4
  call void @llvm.lifetime.end.p0(i64 4, ptr %16) #4
  call void @llvm.lifetime.end.p0(i64 4, ptr %15) #4
  call void @llvm.lifetime.end.p0(i64 4, ptr %14) #4
  call void @llvm.lifetime.end.p0(i64 4, ptr %13) #4
  call void @llvm.lifetime.end.p0(i64 4, ptr %12) #4
  call void @llvm.lifetime.end.p0(i64 8, ptr %11) #4
  call void @llvm.lifetime.end.p0(i64 8, ptr %10) #4
  %159 = load i32, ptr %5, align 4
  ret i32 %159
}