; Function Attrs: nounwind uwtable
define range(i32 0, 2) i32 @CMS_decrypt_set1_pkey_and_peer(ptr noundef %0, ptr noundef %1, ptr noundef %2, ptr noundef %3) local_unnamed_addr #0 {
  %5 = tail call ptr @CMS_get0_RecipientInfos(ptr noundef %0) #4
  %6 = tail call ptr @ossl_cms_get0_env_enc_content(ptr noundef %0) #4
  %.not85 = icmp eq ptr %6, null
  br i1 %.not85, label %.thread, label %7

7:                                                ; preds = %4
  %8 = getelementptr inbounds nuw i8, ptr %6, i64 32
  %9 = load ptr, ptr %8, align 8, !tbaa !39
  %10 = getelementptr inbounds nuw i8, ptr %6, i64 40
  %11 = load i64, ptr %10, align 8, !tbaa !43
  tail call void @CRYPTO_clear_free(ptr noundef %9, i64 noundef %11, ptr noundef nonnull @.str, i32 noundef 725) #4
  %.not86 = icmp eq ptr %5, null
  tail call void @llvm.memset.p0.i64(ptr noundef nonnull align 8 dereferenceable(16) %8, i8 0, i64 16, i1 false)
  br i1 %.not86, label %.thread, label %12

12:                                               ; preds = %7
  %13 = getelementptr inbounds nuw i8, ptr %6, i64 64
  %14 = load i32, ptr %13, align 8, !tbaa !44
  %15 = icmp ne i32 %14, 0
  br label %.thread

.thread:                                          ; preds = %4, %12, %7
  %.062 = phi i1 [ %15, %12 ], [ false, %7 ], [ false, %4 ]
  %16 = tail call i32 @ossl_cms_pkey_get_ri_type(ptr noundef %1) #4
  %17 = icmp eq i32 %16, -1
  br i1 %17, label %22, label %.preheader

.preheader:                                       ; preds = %.thread
  %18 = tail call i32 @OPENSSL_sk_num(ptr noundef %5) #4
  %19 = icmp sgt i32 %18, 0
  br i1 %19, label %.lr.ph, label %.thread101

.lr.ph:                                           ; preds = %.preheader
  %20 = icmp eq ptr %2, null
  %21 = icmp ne i32 %16, 0
  %or.cond3 = or i1 %.062, %21
  %.not87 = icmp ne ptr %2, null
  br label %23

22:                                               ; preds = %.thread
  tail call void @ERR_new() #4
  tail call void @ERR_set_debug(ptr noundef nonnull @.str, i32 noundef 735, ptr noundef nonnull @__func__.CMS_decrypt_set1_pkey_and_peer) #4
  tail call void (i32, i32, ptr, ...) @ERR_set_error(i32 noundef 46, i32 noundef 125, ptr noundef null) #4
  br label %cms_kari_set1_pkey_and_peer.exit.thread81

23:                                               ; preds = %.lr.ph, %cms_kari_set1_pkey_and_peer.exit
  %.05993 = phi i32 [ 0, %.lr.ph ], [ %59, %cms_kari_set1_pkey_and_peer.exit ]
  %.06092 = phi i32 [ 0, %.lr.ph ], [ %.161, %cms_kari_set1_pkey_and_peer.exit ]
  %24 = tail call ptr @OPENSSL_sk_value(ptr noundef %5, i32 noundef %.05993) #4
  %25 = tail call i32 @CMS_RecipientInfo_type(ptr noundef %24) #4
  %26 = tail call i32 @ossl_cms_pkey_is_ri_type_supported(ptr noundef %1, i32 noundef %25) #4
  %.not = icmp eq i32 %26, 0
  br i1 %.not, label %cms_kari_set1_pkey_and_peer.exit, label %27

27:                                               ; preds = %23
  %28 = icmp eq i32 %25, 1
  br i1 %28, label %29, label %44

29:                                               ; preds = %27
  %30 = tail call ptr @CMS_RecipientInfo_kari_get0_reks(ptr noundef %24) #4
  %31 = tail call i32 @OPENSSL_sk_num(ptr noundef %30) #4
  %32 = icmp sgt i32 %31, 0
  br i1 %32, label %.lr.ph.i, label %cms_kari_set1_pkey_and_peer.exit

.lr.ph.i:                                         ; preds = %29
  br i1 %20, label %.lr.ph.split.us.i, label %.lr.ph.split.i

.lr.ph.split.us.i:                                ; preds = %.lr.ph.i
  %33 = tail call ptr @OPENSSL_sk_value(ptr noundef %30, i32 noundef 0) #4
  br label %.split.i

34:                                               ; preds = %.lr.ph.split.i
  %35 = add nuw nsw i32 %.02025.i, 1
  %36 = tail call i32 @OPENSSL_sk_num(ptr noundef %30) #4
  %37 = icmp slt i32 %35, %36
  br i1 %37, label %.lr.ph.split.i, label %cms_kari_set1_pkey_and_peer.exit, !llvm.loop !45

.lr.ph.split.i:                                   ; preds = %.lr.ph.i, %34
  %.02025.i = phi i32 [ %35, %34 ], [ 0, %.lr.ph.i ]
  %38 = tail call ptr @OPENSSL_sk_value(ptr noundef %30, i32 noundef %.02025.i) #4
  %39 = tail call i32 @CMS_RecipientEncryptedKey_cert_cmp(ptr noundef %38, ptr noundef nonnull %2) #4
  %.not22.i = icmp eq i32 %39, 0
  br i1 %.not22.i, label %.split.i, label %34

.split.i:                                         ; preds = %.lr.ph.split.i, %.lr.ph.split.us.i
  %.us-phi.i = phi ptr [ %33, %.lr.ph.split.us.i ], [ %38, %.lr.ph.split.i ]
  %40 = tail call i32 @CMS_RecipientInfo_kari_set0_pkey_and_peer(ptr noundef %24, ptr noundef %1, ptr noundef %3) #4
  %41 = tail call i32 @CMS_RecipientInfo_kari_decrypt(ptr noundef %0, ptr noundef %24, ptr noundef %.us-phi.i) #4
  %42 = tail call i32 @CMS_RecipientInfo_kari_set0_pkey(ptr noundef %24, ptr noundef null) #4
  %43 = icmp sgt i32 %41, 0
  %brmerge = or i1 %43, %.not87
  br i1 %brmerge, label %cms_kari_set1_pkey_and_peer.exit.thread81.loopexit.split.loop.exit, label %cms_kari_set1_pkey_and_peer.exit

44:                                               ; preds = %27
  br i1 %20, label %47, label %45

45:                                               ; preds = %44
  %46 = tail call i32 @CMS_RecipientInfo_ktri_cert_cmp(ptr noundef %24, ptr noundef nonnull %2) #4
  %.not72 = icmp eq i32 %46, 0
  br i1 %.not72, label %47, label %cms_kari_set1_pkey_and_peer.exit

47:                                               ; preds = %45, %44
  %48 = tail call i32 @EVP_PKEY_up_ref(ptr noundef %1) #4
  %49 = tail call i32 @CMS_RecipientInfo_set0_pkey(ptr noundef %24, ptr noundef %1) #4
  %50 = tail call i32 @CMS_RecipientInfo_decrypt(ptr noundef %0, ptr noundef %24) #4
  %51 = tail call i32 @CMS_RecipientInfo_set0_pkey(ptr noundef %24, ptr noundef null) #4
  br i1 %20, label %57, label %52

52:                                               ; preds = %47
  br i1 %.062, label %54, label %53

53:                                               ; preds = %52
  tail call void @ERR_clear_error() #4
  br label %cms_kari_set1_pkey_and_peer.exit.thread81

54:                                               ; preds = %52
  %55 = icmp sgt i32 %50, 0
  br i1 %55, label %cms_kari_set1_pkey_and_peer.exit.thread81, label %56

56:                                               ; preds = %54
  tail call void @ERR_new() #4
  tail call void @ERR_set_debug(ptr noundef nonnull @.str, i32 noundef 771, ptr noundef nonnull @__func__.CMS_decrypt_set1_pkey_and_peer) #4
  tail call void (i32, i32, ptr, ...) @ERR_set_error(i32 noundef 46, i32 noundef 112, ptr noundef null) #4
  br label %cms_kari_set1_pkey_and_peer.exit.thread81

57:                                               ; preds = %47
  %58 = icmp sgt i32 %50, 0
  %or.cond74 = select i1 %58, i1 %or.cond3, i1 false
  br i1 %or.cond74, label %cms_kari_set1_pkey_and_peer.exit.thread81, label %cms_kari_set1_pkey_and_peer.exit

cms_kari_set1_pkey_and_peer.exit:                 ; preds = %34, %.split.i, %57, %45, %29, %23
  %.161 = phi i32 [ %.06092, %23 ], [ 1, %29 ], [ 1, %45 ], [ 1, %57 ], [ 1, %.split.i ], [ 1, %34 ]
  %59 = add nuw nsw i32 %.05993, 1
  %60 = tail call i32 @OPENSSL_sk_num(ptr noundef %5) #4
  %61 = icmp slt i32 %59, %60
  br i1 %61, label %23, label %._crit_edge, !llvm.loop !46

._crit_edge:                                      ; preds = %cms_kari_set1_pkey_and_peer.exit
  %62 = icmp eq i32 %.161, 0
  %63 = icmp ne ptr %2, null
  %64 = icmp ne i32 %16, 0
  %or.cond5.not71 = or i1 %63, %64
  %or.cond7.not68 = select i1 %or.cond5.not71, i1 true, i1 %62
  %or.cond9 = select i1 %or.cond7.not68, i1 true, i1 %.062
  br i1 %or.cond9, label %66, label %65

65:                                               ; preds = %._crit_edge
  tail call void @ERR_clear_error() #4
  br label %cms_kari_set1_pkey_and_peer.exit.thread81

66:                                               ; preds = %._crit_edge
  br i1 %62, label %.thread101, label %cms_kari_set1_pkey_and_peer.exit.thread81

.thread101:                                       ; preds = %.preheader, %66
  tail call void @ERR_new() #4
  tail call void @ERR_set_debug(ptr noundef nonnull @.str, i32 noundef 793, ptr noundef nonnull @__func__.CMS_decrypt_set1_pkey_and_peer) #4
  tail call void (i32, i32, ptr, ...) @ERR_set_error(i32 noundef 46, i32 noundef 132, ptr noundef null) #4
  br label %cms_kari_set1_pkey_and_peer.exit.thread81

cms_kari_set1_pkey_and_peer.exit.thread81.loopexit.split.loop.exit: ; preds = %.split.i
  %.mux.le = zext i1 %43 to i32
  br label %cms_kari_set1_pkey_and_peer.exit.thread81

cms_kari_set1_pkey_and_peer.exit.thread81:        ; preds = %57, %cms_kari_set1_pkey_and_peer.exit.thread81.loopexit.split.loop.exit, %54, %53, %56, %66, %.thread101, %65, %22
  %.0 = phi i32 [ 0, %22 ], [ 1, %65 ], [ 0, %.thread101 ], [ 0, %66 ], [ 1, %54 ], [ 1, %53 ], [ 0, %56 ], [ %.mux.le, %cms_kari_set1_pkey_and_peer.exit.thread81.loopexit.split.loop.exit ], [ 1, %57 ]
  ret i32 %.0
}